target datalayout = "e-m:e-p270:32:32-p271:32:32-p272:64:64-i64:64-i128:128-f80:128-n8:16:32:64-S128"
target triple = "x86_64-pc-linux-gnu"

; Function Attrs: nounwind uwtable
define dso_local zeroext i1 @llvm_types_are_similar(ptr noundef %0, ptr noundef %1) #0 {
  %3 = alloca i1, align 1
  %4 = alloca ptr, align 8
  %5 = alloca ptr, align 8
  %6 = alloca i32, align 4
  %7 = alloca i32, align 4
  store ptr %0, ptr %4, align 8
  store ptr %1, ptr %5, align 8
  %8 = load ptr, ptr %4, align 8
  %9 = load ptr, ptr %5, align 8
  %10 = icmp eq ptr %8, %9
  br i1 %10, label %11, label %12

11:                                               ; preds = %2
  store i1 true, ptr %3, align 1
  br label %49

12:                                               ; preds = %2
  %13 = load ptr, ptr %4, align 8
  %14 = call i32 @LLVMGetTypeKind(ptr noundef %13)
  %15 = icmp ne i32 %14, 10
  br i1 %15, label %16, label %17

16:                                               ; preds = %12
  store i1 false, ptr %3, align 1
  br label %49

17:                                               ; preds = %12
  %18 = load ptr, ptr %5, align 8
  %19 = call i32 @LLVMGetTypeKind(ptr noundef %18)
  %20 = icmp ne i32 %19, 10
  br i1 %20, label %21, label %22

21:                                               ; preds = %17
  store i1 false, ptr %3, align 1
  br label %49

22:                                               ; preds = %17
  %23 = load ptr, ptr %4, align 8
  %24 = call i32 @LLVMCountStructElementTypes(ptr noundef %23)
  store i32 %24, ptr %6, align 4
  %25 = load i32, ptr %6, align 4
  %26 = load ptr, ptr %5, align 8
  %27 = call i32 @LLVMCountStructElementTypes(ptr noundef %26)
  %28 = icmp ne i32 %25, %27
  br i1 %28, label %29, label %30

29:                                               ; preds = %22
  store i1 false, ptr %3, align 1
  br label %49

30:                                               ; preds = %22
  store i32 0, ptr %7, align 4
  br label %31

31:                                               ; preds = %45, %30
  %32 = load i32, ptr %7, align 4
  %33 = load i32, ptr %6, align 4
  %34 = icmp ult i32 %32, %33
  br i1 %34, label %35, label %48

35:                                               ; preds = %31
  %36 = load ptr, ptr %4, align 8
  %37 = load i32, ptr %7, align 4
  %38 = call ptr @LLVMStructGetTypeAtIndex(ptr noundef %36, i32 noundef %37)
  %39 = load ptr, ptr %5, align 8
  %40 = load i32, ptr %7, align 4
  %41 = call ptr @LLVMStructGetTypeAtIndex(ptr noundef %39, i32 noundef %40)
  %42 = icmp ne ptr %38, %41
  br i1 %42, label %43, label %44

43:                                               ; preds = %35
  store i1 false, ptr %3, align 1
  br label %49

44:                                               ; preds = %35
  br label %45

45:                                               ; preds = %44
  %46 = load i32, ptr %7, align 4
  %47 = add i32 %46, 1
  store i32 %47, ptr %7, align 4
  br label %31, !llvm.loop !11

48:                                               ; preds = %31
  store i1 true, ptr %3, align 1
  br label %49

49:                                               ; preds = %48, %43, %29, %21, %16, %11
  %50 = load i1, ptr %3, align 1
  ret i1 %50
}