; Function Attrs: nounwind uwtable
define dso_local noundef zeroext i1 @llvm_types_are_similar(ptr noundef %0, ptr noundef %1) local_unnamed_addr #0 {
  %3 = icmp eq ptr %0, %1
  br i1 %3, label %.loopexit, label %4

4:                                                ; preds = %2
  %5 = tail call i32 @LLVMGetTypeKind(ptr noundef %0) #6
  %.not = icmp eq i32 %5, 10
  br i1 %.not, label %6, label %.loopexit

6:                                                ; preds = %4
  %7 = tail call i32 @LLVMGetTypeKind(ptr noundef %1) #6
  %.not18 = icmp eq i32 %7, 10
  br i1 %.not18, label %8, label %.loopexit

8:                                                ; preds = %6
  %9 = tail call i32 @LLVMCountStructElementTypes(ptr noundef %0) #6
  %10 = tail call i32 @LLVMCountStructElementTypes(ptr noundef %1) #6
  %.not19 = icmp eq i32 %9, %10
  br i1 %.not19, label %.preheader, label %.loopexit

.preheader:                                       ; preds = %8
  %.not24 = icmp eq i32 %9, 0
  br i1 %.not24, label %.loopexit, label %.lr.ph

.lr.ph:                                           ; preds = %.preheader, %.lr.ph
  %.021 = phi i32 [ %13, %.lr.ph ], [ 0, %.preheader ]
  %11 = tail call ptr @LLVMStructGetTypeAtIndex(ptr noundef %0, i32 noundef %.021) #6
  %12 = tail call ptr @LLVMStructGetTypeAtIndex(ptr noundef %1, i32 noundef %.021) #6
  %.not20 = icmp eq ptr %11, %12
  %13 = add nuw i32 %.021, 1
  %exitcond.not = icmp ne i32 %13, %9
  %or.cond.not = select i1 %.not20, i1 %exitcond.not, i1 false
  br i1 %or.cond.not, label %.lr.ph, label %.loopexit, !llvm.loop !11

.loopexit:                                        ; preds = %.lr.ph, %.preheader, %8, %6, %4, %2
  %.014 = phi i1 [ true, %2 ], [ false, %4 ], [ false, %6 ], [ false, %8 ], [ true, %.preheader ], [ %.not20, %.lr.ph ]
  ret i1 %.014
}